; Function Attrs: null_pointer_is_valid sspstrong uwtable
define internal i32 @dissect_sir(ptr noundef %0, ptr noundef %1, ptr noundef %2, ptr readnone captures(none) %3) #0 {
  %5 = tail call i32 @tvb_reported_length_remaining(ptr noundef %0, i32 noundef 0)
  %6 = icmp sgt i32 %5, 0
  br i1 %6, label %.lr.ph, label %._crit_edge

.lr.ph:                                           ; preds = %4
  %7 = getelementptr inbounds nuw i8, ptr %1, i64 408
  %.not = icmp eq ptr %2, null
  br label %8

8:                                                ; preds = %.lr.ph, %checksum_data.exit69
  %.05972 = phi i32 [ 0, %.lr.ph ], [ %92, %checksum_data.exit69 ]
  %9 = tail call i32 @tvb_find_uint8(ptr noundef %0, i32 noundef %.05972, i32 noundef -1, i8 noundef zeroext -64)
  %10 = icmp eq i32 %9, -1
  br i1 %10, label %.thread, label %11

11:                                               ; preds = %8
  %12 = tail call i32 @tvb_find_uint8(ptr noundef %0, i32 noundef %9, i32 noundef -1, i8 noundef zeroext -63)
  %13 = icmp eq i32 %12, -1
  br i1 %13, label %.thread, label %19

.thread:                                          ; preds = %8, %11
  %14 = getelementptr inbounds nuw i8, ptr %1, i64 328
  %15 = load i16, ptr %14, align 8
  %.not66 = icmp eq i16 %15, 0
  br i1 %.not66, label %._crit_edge, label %16

16:                                               ; preds = %.thread
  %17 = getelementptr inbounds nuw i8, ptr %1, i64 332
  store i32 %.05972, ptr %17, align 4
  %18 = getelementptr inbounds nuw i8, ptr %1, i64 336
  store i32 1, ptr %18, align 8
  br label %._crit_edge

19:                                               ; preds = %11
  %20 = sub i32 %9, %.05972
  %21 = add nuw i32 %9, 1
  %22 = sub i32 %12, %21
  %23 = tail call ptr @tvb_new_subset_length_caplen(ptr noundef %0, i32 noundef %21, i32 noundef %22, i32 noundef -1)
  %24 = tail call i32 @tvb_find_uint8(ptr noundef %23, i32 noundef 0, i32 noundef -1, i8 noundef zeroext 125)
  %25 = icmp eq i32 %24, -1
  br i1 %25, label %unescape_data.exit, label %26

26:                                               ; preds = %19
  %27 = tail call i32 @tvb_captured_length(ptr noundef %23)
  %28 = load ptr, ptr %7, align 8
  %29 = zext i32 %27 to i64
  %30 = tail call noalias ptr @wmem_alloc(ptr noundef %28, i64 noundef %29) #3
  %.not.i = icmp eq i32 %27, 0
  br i1 %.not.i, label %._crit_edge.i, label %.lr.ph.i

.lr.ph.i:                                         ; preds = %26, %39
  %.02733.i = phi ptr [ %40, %39 ], [ %30, %26 ]
  %.02832.i = phi i32 [ %.1.i, %39 ], [ 0, %26 ]
  %31 = add nuw i32 %.02832.i, 1
  %32 = tail call zeroext i8 @tvb_get_uint8(ptr noundef %23, i32 noundef %.02832.i)
  %33 = icmp eq i8 %32, 125
  %34 = icmp ult i32 %31, %27
  %or.cond.i = and i1 %34, %33
  br i1 %or.cond.i, label %35, label %39

35:                                               ; preds = %.lr.ph.i
  %36 = add nuw i32 %.02832.i, 2
  %37 = tail call zeroext i8 @tvb_get_uint8(ptr noundef %23, i32 noundef %31)
  %38 = xor i8 %37, 32
  br label %39

39:                                               ; preds = %35, %.lr.ph.i
  %.1.i = phi i32 [ %36, %35 ], [ %31, %.lr.ph.i ]
  %.0.i = phi i8 [ %38, %35 ], [ %32, %.lr.ph.i ]
  %40 = getelementptr i8, ptr %.02733.i, i64 1
  store i8 %.0.i, ptr %.02733.i, align 1
  %41 = icmp ult i32 %.1.i, %27
  br i1 %41, label %.lr.ph.i, label %._crit_edge.i, !llvm.loop !6

._crit_edge.i:                                    ; preds = %39, %26
  %.027.lcssa.i = phi ptr [ %30, %26 ], [ %40, %39 ]
  %42 = ptrtoint ptr %.027.lcssa.i to i64
  %43 = ptrtoint ptr %30 to i64
  %44 = sub i64 %42, %43
  %45 = trunc i64 %44 to i32
  %46 = tail call ptr @tvb_new_child_real_data(ptr noundef %23, ptr noundef %30, i32 noundef %45, i32 noundef %45)
  tail call void @add_new_data_source(ptr noundef %1, ptr noundef %46, ptr noundef nonnull @.str.25)
  br label %unescape_data.exit

unescape_data.exit:                               ; preds = %19, %._crit_edge.i
  %.026.i = phi ptr [ %46, %._crit_edge.i ], [ %23, %19 ]
  %47 = tail call i32 @tvb_reported_length(ptr noundef %.026.i)
  br i1 %.not, label %80, label %48

48:                                               ; preds = %unescape_data.exit
  %49 = icmp ult i32 %47, 2
  br i1 %49, label %53, label %50

50:                                               ; preds = %48
  %51 = tail call i32 @tvb_reported_length(ptr noundef %.026.i)
  %52 = add i32 %51, -2
  br label %53

53:                                               ; preds = %48, %50
  %54 = phi i32 [ %52, %50 ], [ 0, %48 ]
  %55 = load i32, ptr @proto_sir, align 4
  %reass.sub = sub i32 %12, %.05972
  %56 = add i32 %reass.sub, 1
  %57 = tail call ptr (ptr, i32, ptr, i32, i32, ptr, ...) @proto_tree_add_protocol_format(ptr noundef nonnull %2, i32 noundef %55, ptr noundef %0, i32 noundef %.05972, i32 noundef %56, ptr noundef nonnull @.str.24, i32 noundef %54)
  %58 = load i32, ptr @ett_sir, align 4
  %59 = tail call ptr @proto_item_add_subtree(ptr noundef %57, i32 noundef %58)
  %.not65 = icmp eq i32 %9, %.05972
  br i1 %.not65, label %63, label %60

60:                                               ; preds = %53
  %61 = load i32, ptr @hf_sir_preamble, align 4
  %62 = tail call ptr @proto_tree_add_item(ptr noundef %59, i32 noundef %61, ptr noundef %0, i32 noundef %.05972, i32 noundef %20, i32 noundef 0)
  br label %63

63:                                               ; preds = %60, %53
  %64 = load i32, ptr @hf_sir_bof, align 4
  %65 = tail call ptr @proto_tree_add_item(ptr noundef %59, i32 noundef %64, ptr noundef %0, i32 noundef %9, i32 noundef 1, i32 noundef 0)
  %66 = load i32, ptr @hf_sir_length, align 4
  %67 = tail call ptr @proto_tree_add_uint(ptr noundef %59, i32 noundef %66, ptr noundef %.026.i, i32 noundef 0, i32 noundef %54, i32 noundef %54)
  %68 = tail call i32 @tvb_reported_length(ptr noundef %.026.i)
  %69 = add i32 %68, -2
  %70 = icmp slt i32 %69, 0
  br i1 %70, label %checksum_data.exit, label %71

71:                                               ; preds = %63
  %72 = load i32, ptr @hf_sir_fcs, align 4
  %73 = load i32, ptr @hf_sir_fcs_status, align 4
  %74 = tail call zeroext i16 @crc16_ccitt_tvb(ptr noundef %.026.i, i32 noundef %69)
  %75 = zext i16 %74 to i32
  %76 = tail call ptr @proto_tree_add_checksum(ptr noundef %59, ptr noundef %.026.i, i32 noundef %69, i32 noundef %72, i32 noundef %73, ptr noundef nonnull @ei_sir_fcs, ptr noundef %1, i32 noundef %75, i32 noundef -2147483648, i32 noundef 1)
  %77 = tail call ptr @tvb_new_subset_length(ptr noundef %.026.i, i32 noundef 0, i32 noundef %69)
  br label %checksum_data.exit

checksum_data.exit:                               ; preds = %63, %71
  %.0.i67 = phi ptr [ %77, %71 ], [ %.026.i, %63 ]
  %78 = load i32, ptr @hf_sir_eof, align 4
  %79 = tail call ptr @proto_tree_add_item(ptr noundef %59, i32 noundef %78, ptr noundef %0, i32 noundef %12, i32 noundef 1, i32 noundef 0)
  br label %checksum_data.exit69

80:                                               ; preds = %unescape_data.exit
  %81 = add i32 %47, -2
  %82 = icmp slt i32 %81, 0
  br i1 %82, label %checksum_data.exit69, label %83

83:                                               ; preds = %80
  %84 = load i32, ptr @hf_sir_fcs, align 4
  %85 = load i32, ptr @hf_sir_fcs_status, align 4
  %86 = tail call zeroext i16 @crc16_ccitt_tvb(ptr noundef %.026.i, i32 noundef %81)
  %87 = zext i16 %86 to i32
  %88 = tail call ptr @proto_tree_add_checksum(ptr noundef null, ptr noundef %.026.i, i32 noundef %81, i32 noundef %84, i32 noundef %85, ptr noundef nonnull @ei_sir_fcs, ptr noundef %1, i32 noundef %87, i32 noundef -2147483648, i32 noundef 1)
  %89 = tail call ptr @tvb_new_subset_length(ptr noundef %.026.i, i32 noundef 0, i32 noundef %81)
  br label %checksum_data.exit69

checksum_data.exit69:                             ; preds = %83, %80, %checksum_data.exit
  %.060 = phi ptr [ %.0.i67, %checksum_data.exit ], [ %89, %83 ], [ %.026.i, %80 ]
  %90 = load ptr, ptr @irda_handle, align 8
  %91 = tail call i32 @call_dissector(ptr noundef %90, ptr noundef %.060, ptr noundef %1, ptr noundef %2)
  %92 = add nuw i32 %12, 1
  %93 = tail call i32 @tvb_reported_length_remaining(ptr noundef %0, i32 noundef %92)
  %94 = icmp sgt i32 %93, 0
  br i1 %94, label %8, label %._crit_edge, !llvm.loop !8

._crit_edge:                                      ; preds = %checksum_data.exit69, %4, %.thread, %16
  %95 = tail call i32 @tvb_captured_length(ptr noundef %0)
  ret i32 %95
}